target datalayout = "e-m:e-p270:32:32-p271:32:32-p272:64:64-i64:64-i128:128-f80:128-n8:16:32:64-S128"
target triple = "x86_64-pc-linux-gnu"

@hf_nfsacl_entry = internal global i32 0, align 4
@ett_nfsacl_entry = internal global i32 0, align 4
@hf_nfs_status = external global i32, align 4
@.str.66 = private unnamed_addr constant [5 x i8] c"attr\00", align 1

; Function Attrs: null_pointer_is_valid sspstrong uwtable
define internal i32 @dissect_nfsacl3_getacl_reply(ptr noundef %0, ptr noundef %1, ptr noundef %2, ptr noundef %3) #0 {
  %5 = alloca i32, align 4
  %6 = alloca ptr, align 8
  %7 = alloca ptr, align 8
  %8 = alloca ptr, align 8
  %9 = alloca ptr, align 8
  %10 = alloca i32, align 4
  %11 = alloca ptr, align 8
  %12 = alloca ptr, align 8
  %13 = alloca i32, align 4
  %14 = alloca i32, align 4
  store ptr %0, ptr %6, align 8
  store ptr %1, ptr %7, align 8
  store ptr %2, ptr %8, align 8
  store ptr %3, ptr %9, align 8
  call void @llvm.lifetime.start.p0(i64 4, ptr %10) #4
  call void @llvm.lifetime.start.p0(i64 8, ptr %11) #4
  call void @llvm.lifetime.start.p0(i64 8, ptr %12) #4
  call void @llvm.lifetime.start.p0(i64 4, ptr %13) #4
  store i32 0, ptr %13, align 4
  %15 = load ptr, ptr %8, align 8
  %16 = load i32, ptr @hf_nfs_status, align 4
  %17 = load ptr, ptr %6, align 8
  %18 = load i32, ptr %13, align 4
  %19 = call ptr @proto_tree_add_item_ret_uint(ptr noundef %15, i32 noundef %16, ptr noundef %17, i32 noundef %18, i32 noundef 4, i32 noundef 0, ptr noundef %10)
  %20 = load i32, ptr %13, align 4
  %21 = add i32 %20, 4
  store i32 %21, ptr %13, align 4
  %22 = load ptr, ptr %8, align 8
  %23 = load i32, ptr @hf_nfsacl_entry, align 4
  %24 = load ptr, ptr %6, align 8
  %25 = load i32, ptr %13, align 4
  %26 = add i32 %25, 0
  %27 = call ptr @proto_tree_add_item(ptr noundef %22, i32 noundef %23, ptr noundef %24, i32 noundef %26, i32 noundef -1, i32 noundef 0)
  store ptr %27, ptr %11, align 8
  %28 = load ptr, ptr %11, align 8
  %29 = load i32, ptr @ett_nfsacl_entry, align 4
  %30 = call ptr @proto_item_add_subtree(ptr noundef %28, i32 noundef %29)
  store ptr %30, ptr %12, align 8
  %31 = load ptr, ptr %6, align 8
  %32 = load i32, ptr %13, align 4
  %33 = load ptr, ptr %7, align 8
  %34 = load ptr, ptr %12, align 8
  %35 = call i32 @dissect_nfs3_post_op_attr(ptr noundef %31, i32 noundef %32, ptr noundef %33, ptr noundef %34, ptr noundef @.str.66)
  store i32 %35, ptr %13, align 4
  %36 = load i32, ptr %10, align 4
  %37 = icmp ne i32 %36, 0
  br i1 %37, label %38, label %40

38:                                               ; preds = %4
  %39 = load i32, ptr %13, align 4
  store i32 %39, ptr %5, align 4
  store i32 1, ptr %14, align 4
  br label %47

40:                                               ; preds = %4
  %41 = load ptr, ptr %6, align 8
  %42 = load i32, ptr %13, align 4
  %43 = load ptr, ptr %7, align 8
  %44 = load ptr, ptr %12, align 8
  %45 = call i32 @dissect_nfsacl_secattr(ptr noundef %41, i32 noundef %42, ptr noundef %43, ptr noundef %44)
  store i32 %45, ptr %13, align 4
  %46 = load i32, ptr %13, align 4
  store i32 %46, ptr %5, align 4
  store i32 1, ptr %14, align 4
  br label %47

47:                                               ; preds = %40, %38
  call void @llvm.lifetime.end.p0(i64 4, ptr %13) #4
  call void @llvm.lifetime.end.p0(i64 8, ptr %12) #4
  call void @llvm.lifetime.end.p0(i64 8, ptr %11) #4
  call void @llvm.lifetime.end.p0(i64 4, ptr %10) #4
  %48 = load i32, ptr %5, align 4
  ret i32 %48
}