; Function Attrs: null_pointer_is_valid sspstrong uwtable
define internal i32 @dissect_nfsacl3_getacl_reply(ptr noundef %0, ptr noundef %1, ptr noundef %2, ptr readnone captures(none) %3) #0 {
  %5 = alloca i32, align 4
  call void @llvm.lifetime.start.p0(i64 4, ptr nonnull %5) #4
  %6 = load i32, ptr @hf_nfs_status, align 4
  %7 = call ptr @proto_tree_add_item_ret_uint(ptr noundef %2, i32 noundef %6, ptr noundef %0, i32 noundef 0, i32 noundef 4, i32 noundef 0, ptr noundef nonnull %5)
  %8 = load i32, ptr @hf_nfsacl_entry, align 4
  %9 = call ptr @proto_tree_add_item(ptr noundef %2, i32 noundef %8, ptr noundef %0, i32 noundef 4, i32 noundef -1, i32 noundef 0)
  %10 = load i32, ptr @ett_nfsacl_entry, align 4
  %11 = call ptr @proto_item_add_subtree(ptr noundef %9, i32 noundef %10)
  %12 = call i32 @dissect_nfs3_post_op_attr(ptr noundef %0, i32 noundef 4, ptr noundef %1, ptr noundef %11, ptr noundef nonnull @.str.66)
  %13 = load i32, ptr %5, align 4
  %.not = icmp eq i32 %13, 0
  br i1 %.not, label %14, label %16

14:                                               ; preds = %4
  %15 = call fastcc i32 @dissect_nfsacl_secattr(ptr noundef %0, i32 noundef %12, ptr noundef %11)
  br label %16

16:                                               ; preds = %4, %14
  %.0 = phi i32 [ %15, %14 ], [ %12, %4 ]
  call void @llvm.lifetime.end.p0(i64 4, ptr nonnull %5) #4
  ret i32 %.0
}